; Function Attrs: mustprogress nofree norecurse nosync nounwind willreturn memory(argmem: read) uwtable
define noundef zeroext i1 @_ZNK10open_spiel13markov_soccer17MarkovSoccerState10IsTerminalEv(ptr nocapture noundef nonnull readonly align 8 dereferenceable(144) %0) unnamed_addr #10 align 2 {
  %2 = getelementptr inbounds nuw i8, ptr %0, i64 80
  %3 = load i32, ptr %2, align 8
  %4 = getelementptr inbounds nuw i8, ptr %0, i64 84
  %5 = load i32, ptr %4, align 4
  %.not = icmp sge i32 %3, %5
  %6 = getelementptr inbounds nuw i8, ptr %0, i64 72
  %7 = load i32, ptr %6, align 8
  %8 = icmp ne i32 %7, -3
  %9 = select i1 %.not, i1 true, i1 %8
  ret i1 %9
}